target datalayout = "e-m:e-p270:32:32-p271:32:32-p272:64:64-i64:64-i128:128-f80:128-n8:16:32:64-S128"
target triple = "x86_64-pc-linux-gnu"

@.str.10 = private unnamed_addr constant [18 x i8] c"getcwd failed: %s\00", align 1

; Function Attrs: nounwind uwtable
define hidden ptr @SDL_SYS_GetCurrentDirectory() #0 {
  %1 = alloca ptr, align 8
  %2 = alloca i64, align 8
  %3 = alloca ptr, align 8
  %4 = alloca ptr, align 8
  %5 = alloca i32, align 4
  call void @llvm.lifetime.start.p0(i64 8, ptr %2) #6
  store i64 64, ptr %2, align 8
  call void @llvm.lifetime.start.p0(i64 8, ptr %3) #6
  store ptr null, ptr %3, align 8
  br label %6

6:                                                ; preds = %36, %0
  br label %7

7:                                                ; preds = %6
  call void @llvm.lifetime.start.p0(i64 8, ptr %4) #6
  %8 = load ptr, ptr %3, align 8
  %9 = load i64, ptr %2, align 8
  %10 = call ptr @SDL_realloc_REAL(ptr noundef %8, i64 noundef %9) #8
  store ptr %10, ptr %4, align 8
  %11 = load ptr, ptr %4, align 8
  %12 = icmp ne ptr %11, null
  br i1 %12, label %15, label %13

13:                                               ; preds = %7
  %14 = load ptr, ptr %3, align 8
  call void @SDL_free_REAL(ptr noundef %14)
  store ptr null, ptr %1, align 8
  store i32 1, ptr %5, align 4
  br label %36

15:                                               ; preds = %7
  %16 = load ptr, ptr %4, align 8
  store ptr %16, ptr %3, align 8
  %17 = load ptr, ptr %3, align 8
  %18 = load i64, ptr %2, align 8
  %19 = sub i64 %18, 1
  %20 = call ptr @getcwd(ptr noundef %17, i64 noundef %19) #6
  %21 = icmp ne ptr %20, null
  br i1 %21, label %22, label %23

22:                                               ; preds = %15
  store i32 3, ptr %5, align 4
  br label %36

23:                                               ; preds = %15
  %24 = call ptr @__errno_location() #7
  %25 = load i32, ptr %24, align 4
  %26 = icmp eq i32 %25, 34
  br i1 %26, label %27, label %30

27:                                               ; preds = %23
  %28 = load i64, ptr %2, align 8
  %29 = mul i64 %28, 2
  store i64 %29, ptr %2, align 8
  store i32 2, ptr %5, align 4
  br label %36

30:                                               ; preds = %23
  %31 = load ptr, ptr %3, align 8
  call void @SDL_free_REAL(ptr noundef %31)
  %32 = call ptr @__errno_location() #7
  %33 = load i32, ptr %32, align 4
  %34 = call ptr @strerror(i32 noundef %33) #6
  %35 = call zeroext i1 (ptr, ...) @SDL_SetError_REAL(ptr noundef @.str.10, ptr noundef %34)
  store ptr null, ptr %1, align 8
  store i32 1, ptr %5, align 4
  br label %36

36:                                               ; preds = %30, %27, %22, %13
  call void @llvm.lifetime.end.p0(i64 8, ptr %4) #6
  %37 = load i32, ptr %5, align 4
  switch i32 %37, label %64 [
    i32 3, label %38
    i32 2, label %6
  ]

38:                                               ; preds = %36
  br label %39

39:                                               ; preds = %38
  br label %40

40:                                               ; preds = %39
  br label %41

41:                                               ; preds = %40
  %42 = load ptr, ptr %3, align 8
  %43 = call i64 @SDL_strlen_REAL(ptr noundef %42)
  store i64 %43, ptr %2, align 8
  %44 = load i64, ptr %2, align 8
  %45 = icmp eq i64 %44, 0
  br i1 %45, label %54, label %46

46:                                               ; preds = %41
  %47 = load ptr, ptr %3, align 8
  %48 = load i64, ptr %2, align 8
  %49 = sub i64 %48, 1
  %50 = getelementptr inbounds nuw i8, ptr %47, i64 %49
  %51 = load i8, ptr %50, align 1
  %52 = sext i8 %51 to i32
  %53 = icmp ne i32 %52, 47
  br i1 %53, label %54, label %62

54:                                               ; preds = %46, %41
  %55 = load ptr, ptr %3, align 8
  %56 = load i64, ptr %2, align 8
  %57 = getelementptr inbounds nuw i8, ptr %55, i64 %56
  store i8 47, ptr %57, align 1
  %58 = load ptr, ptr %3, align 8
  %59 = load i64, ptr %2, align 8
  %60 = add i64 %59, 1
  %61 = getelementptr inbounds nuw i8, ptr %58, i64 %60
  store i8 0, ptr %61, align 1
  br label %62

62:                                               ; preds = %54, %46
  %63 = load ptr, ptr %3, align 8
  store ptr %63, ptr %1, align 8
  store i32 1, ptr %5, align 4
  br label %64

64:                                               ; preds = %62, %36
  call void @llvm.lifetime.end.p0(i64 8, ptr %3) #6
  call void @llvm.lifetime.end.p0(i64 8, ptr %2) #6
  %65 = load ptr, ptr %1, align 8
  ret ptr %65
}