; Function Attrs: nounwind uwtable
define hidden noundef ptr @SDL_SYS_GetCurrentDirectory() local_unnamed_addr #0 {
  %1 = tail call dereferenceable_or_null(64) ptr @SDL_realloc_REAL(ptr noundef null, i64 noundef 64) #9
  %.not41 = icmp eq ptr %1, null
  br i1 %.not41, label %._crit_edge, label %.lr.ph

2:                                                ; preds = %8
  %3 = shl i64 %.02242, 1
  %4 = tail call ptr @SDL_realloc_REAL(ptr noundef nonnull %5, i64 noundef %3) #9
  %.not = icmp eq ptr %4, null
  br i1 %.not, label %._crit_edge, label %.lr.ph

._crit_edge:                                      ; preds = %2, %0
  %.020.lcssa = phi ptr [ null, %0 ], [ %5, %2 ]
  tail call void @SDL_free_REAL(ptr noundef %.020.lcssa) #7
  br label %.thread

.lr.ph:                                           ; preds = %0, %2
  %5 = phi ptr [ %4, %2 ], [ %1, %0 ]
  %.02242 = phi i64 [ %3, %2 ], [ 64, %0 ]
  %6 = add i64 %.02242, -1
  %7 = tail call ptr @getcwd(ptr noundef nonnull %5, i64 noundef %6) #7
  %.not26 = icmp eq ptr %7, null
  br i1 %.not26, label %8, label %16

8:                                                ; preds = %.lr.ph
  %9 = tail call ptr @__errno_location() #8
  %10 = load i32, ptr %9, align 4
  %11 = icmp eq i32 %10, 34
  br i1 %11, label %2, label %12

12:                                               ; preds = %8
  tail call void @SDL_free_REAL(ptr noundef nonnull %5) #7
  %13 = load i32, ptr %9, align 4
  %14 = tail call ptr @strerror(i32 noundef %13) #7
  %15 = tail call zeroext i1 (ptr, ...) @SDL_SetError_REAL(ptr noundef nonnull @.str.10, ptr noundef %14) #7
  br label %.thread

16:                                               ; preds = %.lr.ph
  %17 = tail call i64 @SDL_strlen_REAL(ptr noundef nonnull %5) #7
  %18 = icmp eq i64 %17, 0
  br i1 %18, label %23, label %19

19:                                               ; preds = %16
  %20 = getelementptr i8, ptr %5, i64 %17
  %21 = getelementptr i8, ptr %20, i64 -1
  %22 = load i8, ptr %21, align 1
  %.not27 = icmp eq i8 %22, 47
  br i1 %.not27, label %.thread, label %23

23:                                               ; preds = %19, %16
  %24 = getelementptr inbounds nuw i8, ptr %5, i64 %17
  store i8 47, ptr %24, align 1
  %25 = getelementptr i8, ptr %24, i64 1
  store i8 0, ptr %25, align 1
  br label %.thread

.thread:                                          ; preds = %._crit_edge, %12, %19, %23
  %.2 = phi ptr [ %5, %23 ], [ %5, %19 ], [ null, %12 ], [ null, %._crit_edge ]
  ret ptr %.2
}